target datalayout = "e-m:e-p270:32:32-p271:32:32-p272:64:64-i64:64-i128:128-f80:128-n8:16:32:64-S128"
target triple = "x86_64-pc-linux-gnu"

%class.Rectangle = type { double, double, double, double }

; Function Attrs: mustprogress nounwind uwtable
define void @_ZN9RectangleC2Edddd(ptr noundef nonnull align 8 dereferenceable(32) %0, double noundef %1, double noundef %2, double noundef %3, double noundef %4) unnamed_addr #6 align 2 {
  %6 = alloca ptr, align 8
  %7 = alloca double, align 8
  %8 = alloca double, align 8
  %9 = alloca double, align 8
  %10 = alloca double, align 8
  store ptr %0, ptr %6, align 8, !tbaa !8
  store double %1, ptr %7, align 8, !tbaa !20
  store double %2, ptr %8, align 8, !tbaa !20
  store double %3, ptr %9, align 8, !tbaa !20
  store double %4, ptr %10, align 8, !tbaa !20
  %11 = load ptr, ptr %6, align 8
  %12 = getelementptr inbounds nuw %class.Rectangle, ptr %11, i32 0, i32 0
  %13 = load double, ptr %7, align 8, !tbaa !20
  store double %13, ptr %12, align 8, !tbaa !10
  %14 = getelementptr inbounds nuw %class.Rectangle, ptr %11, i32 0, i32 1
  %15 = load double, ptr %8, align 8, !tbaa !20
  store double %15, ptr %14, align 8, !tbaa !13
  %16 = getelementptr inbounds nuw %class.Rectangle, ptr %11, i32 0, i32 2
  %17 = load double, ptr %9, align 8, !tbaa !20
  store double %17, ptr %16, align 8, !tbaa !14
  %18 = getelementptr inbounds nuw %class.Rectangle, ptr %11, i32 0, i32 3
  %19 = load double, ptr %10, align 8, !tbaa !20
  store double %19, ptr %18, align 8, !tbaa !15
  ret void
}